target datalayout = "e-m:e-p270:32:32-p271:32:32-p272:64:64-i64:64-i128:128-f80:128-n8:16:32:64-S128"
target triple = "x86_64-pc-linux-gnu"

%struct.raxStack = type { ptr, i64, i64, [32 x ptr], i32 }
%struct.raxIterator = type { i32, ptr, ptr, ptr, i64, i64, [128 x i8], ptr, %struct.raxStack, ptr }

; Function Attrs: nounwind uwtable
define dso_local i32 @raxNext(ptr noundef %0) #0 {
  %2 = alloca i32, align 4
  %3 = alloca ptr, align 8
  store ptr %0, ptr %3, align 8, !tbaa !44
  %4 = load ptr, ptr %3, align 8, !tbaa !44
  %5 = call i32 @raxIteratorNextStep(ptr noundef %4, i32 noundef 0)
  %6 = icmp ne i32 %5, 0
  br i1 %6, label %9, label %7

7:                                                ; preds = %1
  %8 = call ptr @__errno_location() #17
  store i32 12, ptr %8, align 4, !tbaa !5
  store i32 0, ptr %2, align 4
  br label %18

9:                                                ; preds = %1
  %10 = load ptr, ptr %3, align 8, !tbaa !44
  %11 = getelementptr inbounds nuw %struct.raxIterator, ptr %10, i32 0, i32 0
  %12 = load i32, ptr %11, align 8, !tbaa !46
  %13 = and i32 %12, 2
  %14 = icmp ne i32 %13, 0
  br i1 %14, label %15, label %17

15:                                               ; preds = %9
  %16 = call ptr @__errno_location() #17
  store i32 0, ptr %16, align 4, !tbaa !5
  store i32 0, ptr %2, align 4
  br label %18

17:                                               ; preds = %9
  store i32 1, ptr %2, align 4
  br label %18

18:                                               ; preds = %17, %15, %7
  %19 = load i32, ptr %2, align 4
  ret i32 %19
}